target datalayout = "e-m:e-p270:32:32-p271:32:32-p272:64:64-i64:64-i128:128-f80:128-n8:16:32:64-S128"
target triple = "x86_64-pc-linux-gnu"

%struct.FunctionCallInfoBaseData = type { ptr, ptr, ptr, i32, i8, i16, [0 x %struct.NullableDatum] }
%struct.NullableDatum = type { i64, i8 }
%struct.ntile_context = type { i32, i64, i64, i64 }

@.str = private unnamed_addr constant [44 x i8] c"argument of ntile must be greater than zero\00", align 1
@.str.1 = private unnamed_addr constant [14 x i8] c"windowfuncs.c\00", align 1
@__func__.window_ntile = private unnamed_addr constant [13 x i8] c"window_ntile\00", align 1

; Function Attrs: inlinehint nounwind uwtable
define internal i64 @Int32GetDatum(i32 noundef %0) #3 {
  %2 = alloca i32, align 4
  store i32 %0, ptr %2, align 4
  %3 = load i32, ptr %2, align 4
  %4 = sext i32 %3 to i64
  ret i64 %4
}

; Function Attrs: inlinehint nounwind uwtable
define internal i32 @DatumGetInt32(i64 noundef %0) #3 {
  %2 = alloca i64, align 8
  store i64 %0, ptr %2, align 8
  %3 = load i64, ptr %2, align 8
  %4 = trunc i64 %3 to i32
  ret i32 %4
}

; Function Attrs: nounwind uwtable
define dso_local i64 @window_ntile(ptr noundef %0) #0 {
  %2 = alloca i64, align 8
  %3 = alloca ptr, align 8
  %4 = alloca ptr, align 8
  %5 = alloca ptr, align 8
  %6 = alloca i64, align 8
  %7 = alloca i32, align 4
  %8 = alloca i8, align 1
  %9 = alloca i32, align 4
  store ptr %0, ptr %3, align 8
  call void @llvm.lifetime.start.p0(i64 8, ptr %4) #5
  %10 = load ptr, ptr %3, align 8
  %11 = getelementptr inbounds nuw %struct.FunctionCallInfoBaseData, ptr %10, i32 0, i32 1
  %12 = load ptr, ptr %11, align 8
  store ptr %12, ptr %4, align 8
  call void @llvm.lifetime.start.p0(i64 8, ptr %5) #5
  %13 = load ptr, ptr %4, align 8
  %14 = call ptr @WinGetPartitionLocalMemory(ptr noundef %13, i64 noundef 32)
  store ptr %14, ptr %5, align 8
  %15 = load ptr, ptr %5, align 8
  %16 = getelementptr inbounds nuw %struct.ntile_context, ptr %15, i32 0, i32 0
  %17 = load i32, ptr %16, align 8
  %18 = icmp eq i32 %17, 0
  br i1 %18, label %19, label %87

19:                                               ; preds = %1
  call void @llvm.lifetime.start.p0(i64 8, ptr %6) #5
  call void @llvm.lifetime.start.p0(i64 4, ptr %7) #5
  call void @llvm.lifetime.start.p0(i64 1, ptr %8) #5
  %20 = load ptr, ptr %4, align 8
  %21 = call i64 @WinGetPartitionRowCount(ptr noundef %20)
  store i64 %21, ptr %6, align 8
  %22 = load ptr, ptr %4, align 8
  %23 = call i64 @WinGetFuncArgCurrent(ptr noundef %22, i32 noundef 0, ptr noundef %8)
  %24 = call i32 @DatumGetInt32(i64 noundef %23)
  store i32 %24, ptr %7, align 4
  %25 = load i8, ptr %8, align 1, !range !4, !noundef !5
  %26 = trunc i8 %25 to i1
  br i1 %26, label %27, label %33

27:                                               ; preds = %19
  br label %28

28:                                               ; preds = %27
  %29 = load ptr, ptr %3, align 8
  %30 = getelementptr inbounds nuw %struct.FunctionCallInfoBaseData, ptr %29, i32 0, i32 4
  store i8 1, ptr %30, align 4
  store i64 0, ptr %2, align 8
  store i32 1, ptr %9, align 4
  br label %84

31:                                               ; No predecessors!
  br label %32

32:                                               ; preds = %31
  br label %33

33:                                               ; preds = %32, %19
  %34 = load i32, ptr %7, align 4
  %35 = icmp sle i32 %34, 0
  br i1 %35, label %36, label %48

36:                                               ; preds = %33
  br label %37

37:                                               ; preds = %36
  br i1 true, label %38, label %40

38:                                               ; preds = %37
  %39 = call zeroext i1 @errstart_cold(i32 noundef 21, ptr noundef null) #6
  br i1 %39, label %42, label %45

40:                                               ; preds = %37
  %41 = call zeroext i1 @errstart(i32 noundef 21, ptr noundef null)
  br i1 %41, label %42, label %45

42:                                               ; preds = %40, %38
  %43 = call i32 @errcode(i32 noundef 67371138)
  %44 = call i32 (ptr, ...) @errmsg(ptr noundef @.str)
  call void @errfinish(ptr noundef @.str.1, i32 noundef 443, ptr noundef @__func__.window_ntile)
  br label %45

45:                                               ; preds = %42, %40, %38
  unreachable

46:                                               ; No predecessors!
  br label %47

47:                                               ; preds = %46
  br label %48

48:                                               ; preds = %47, %33
  %49 = load ptr, ptr %5, align 8
  %50 = getelementptr inbounds nuw %struct.ntile_context, ptr %49, i32 0, i32 0
  store i32 1, ptr %50, align 8
  %51 = load ptr, ptr %5, align 8
  %52 = getelementptr inbounds nuw %struct.ntile_context, ptr %51, i32 0, i32 1
  store i64 0, ptr %52, align 8
  %53 = load i64, ptr %6, align 8
  %54 = load i32, ptr %7, align 4
  %55 = sext i32 %54 to i64
  %56 = sdiv i64 %53, %55
  %57 = load ptr, ptr %5, align 8
  %58 = getelementptr inbounds nuw %struct.ntile_context, ptr %57, i32 0, i32 2
  store i64 %56, ptr %58, align 8
  %59 = load ptr, ptr %5, align 8
  %60 = getelementptr inbounds nuw %struct.ntile_context, ptr %59, i32 0, i32 2
  %61 = load i64, ptr %60, align 8
  %62 = icmp sle i64 %61, 0
  br i1 %62, label %63, label %66

63:                                               ; preds = %48
  %64 = load ptr, ptr %5, align 8
  %65 = getelementptr inbounds nuw %struct.ntile_context, ptr %64, i32 0, i32 2
  store i64 1, ptr %65, align 8
  br label %83

66:                                               ; preds = %48
  %67 = load i64, ptr %6, align 8
  %68 = load i32, ptr %7, align 4
  %69 = sext i32 %68 to i64
  %70 = srem i64 %67, %69
  %71 = load ptr, ptr %5, align 8
  %72 = getelementptr inbounds nuw %struct.ntile_context, ptr %71, i32 0, i32 3
  store i64 %70, ptr %72, align 8
  %73 = load ptr, ptr %5, align 8
  %74 = getelementptr inbounds nuw %struct.ntile_context, ptr %73, i32 0, i32 3
  %75 = load i64, ptr %74, align 8
  %76 = icmp ne i64 %75, 0
  br i1 %76, label %77, label %82

77:                                               ; preds = %66
  %78 = load ptr, ptr %5, align 8
  %79 = getelementptr inbounds nuw %struct.ntile_context, ptr %78, i32 0, i32 2
  %80 = load i64, ptr %79, align 8
  %81 = add i64 %80, 1
  store i64 %81, ptr %79, align 8
  br label %82

82:                                               ; preds = %77, %66
  br label %83

83:                                               ; preds = %82, %63
  store i32 0, ptr %9, align 4
  br label %84

84:                                               ; preds = %83, %28
  call void @llvm.lifetime.end.p0(i64 1, ptr %8) #5
  call void @llvm.lifetime.end.p0(i64 4, ptr %7) #5
  call void @llvm.lifetime.end.p0(i64 8, ptr %6) #5
  %85 = load i32, ptr %9, align 4
  switch i32 %85, label %132 [
    i32 0, label %86
  ]

86:                                               ; preds = %84
  br label %87

87:                                               ; preds = %86, %1
  %88 = load ptr, ptr %5, align 8
  %89 = getelementptr inbounds nuw %struct.ntile_context, ptr %88, i32 0, i32 1
  %90 = load i64, ptr %89, align 8
  %91 = add i64 %90, 1
  store i64 %91, ptr %89, align 8
  %92 = load ptr, ptr %5, align 8
  %93 = getelementptr inbounds nuw %struct.ntile_context, ptr %92, i32 0, i32 2
  %94 = load i64, ptr %93, align 8
  %95 = load ptr, ptr %5, align 8
  %96 = getelementptr inbounds nuw %struct.ntile_context, ptr %95, i32 0, i32 1
  %97 = load i64, ptr %96, align 8
  %98 = icmp slt i64 %94, %97
  br i1 %98, label %99, label %127

99:                                               ; preds = %87
  %100 = load ptr, ptr %5, align 8
  %101 = getelementptr inbounds nuw %struct.ntile_context, ptr %100, i32 0, i32 3
  %102 = load i64, ptr %101, align 8
  %103 = icmp ne i64 %102, 0
  br i1 %103, label %104, label %120

104:                                              ; preds = %99
  %105 = load ptr, ptr %5, align 8
  %106 = getelementptr inbounds nuw %struct.ntile_context, ptr %105, i32 0, i32 0
  %107 = load i32, ptr %106, align 8
  %108 = sext i32 %107 to i64
  %109 = load ptr, ptr %5, align 8
  %110 = getelementptr inbounds nuw %struct.ntile_context, ptr %109, i32 0, i32 3
  %111 = load i64, ptr %110, align 8
  %112 = icmp eq i64 %108, %111
  br i1 %112, label %113, label %120

113:                                              ; preds = %104
  %114 = load ptr, ptr %5, align 8
  %115 = getelementptr inbounds nuw %struct.ntile_context, ptr %114, i32 0, i32 3
  store i64 0, ptr %115, align 8
  %116 = load ptr, ptr %5, align 8
  %117 = getelementptr inbounds nuw %struct.ntile_context, ptr %116, i32 0, i32 2
  %118 = load i64, ptr %117, align 8
  %119 = sub i64 %118, 1
  store i64 %119, ptr %117, align 8
  br label %120

120:                                              ; preds = %113, %104, %99
  %121 = load ptr, ptr %5, align 8
  %122 = getelementptr inbounds nuw %struct.ntile_context, ptr %121, i32 0, i32 0
  %123 = load i32, ptr %122, align 8
  %124 = add i32 %123, 1
  store i32 %124, ptr %122, align 8
  %125 = load ptr, ptr %5, align 8
  %126 = getelementptr inbounds nuw %struct.ntile_context, ptr %125, i32 0, i32 1
  store i64 1, ptr %126, align 8
  br label %127

127:                                              ; preds = %120, %87
  %128 = load ptr, ptr %5, align 8
  %129 = getelementptr inbounds nuw %struct.ntile_context, ptr %128, i32 0, i32 0
  %130 = load i32, ptr %129, align 8
  %131 = call i64 @Int32GetDatum(i32 noundef %130)
  store i64 %131, ptr %2, align 8
  store i32 1, ptr %9, align 4
  br label %132

132:                                              ; preds = %127, %84
  call void @llvm.lifetime.end.p0(i64 8, ptr %5) #5
  call void @llvm.lifetime.end.p0(i64 8, ptr %4) #5
  %133 = load i64, ptr %2, align 8
  ret i64 %133
}