; Function Attrs: nounwind uwtable
define dso_local range(i64 -2147483648, 2147483648) i64 @window_ntile(ptr noundef captures(none) %0) local_unnamed_addr #0 {
  %2 = alloca i8, align 1
  %3 = getelementptr inbounds nuw i8, ptr %0, i64 8
  %4 = load ptr, ptr %3, align 8
  %5 = tail call ptr @WinGetPartitionLocalMemory(ptr noundef %4, i64 noundef 32) #6
  %6 = load i32, ptr %5, align 8
  %7 = icmp eq i32 %6, 0
  br i1 %7, label %9, label %._crit_edge

._crit_edge:                                      ; preds = %1
  %.phi.trans.insert = getelementptr inbounds nuw i8, ptr %5, i64 8
  %.pre = load i64, ptr %.phi.trans.insert, align 8
  %.phi.trans.insert35 = getelementptr inbounds nuw i8, ptr %5, i64 16
  %.pre36 = load i64, ptr %.phi.trans.insert35, align 8
  %8 = add i64 %.pre, 1
  br label %34

9:                                                ; preds = %1
  call void @llvm.lifetime.start.p0(i64 1, ptr nonnull %2) #6
  %10 = tail call i64 @WinGetPartitionRowCount(ptr noundef %4) #6
  %11 = call i64 @WinGetFuncArgCurrent(ptr noundef %4, i32 noundef 0, ptr noundef nonnull %2) #6
  %12 = load i8, ptr %2, align 1, !range !6, !noundef !7
  %13 = trunc nuw i8 %12 to i1
  br i1 %13, label %32, label %14

14:                                               ; preds = %9
  %15 = trunc i64 %11 to i32
  %16 = icmp slt i32 %15, 1
  br i1 %16, label %17, label %21

17:                                               ; preds = %14
  %18 = call zeroext i1 @errstart_cold(i32 noundef 21, ptr noundef null) #7
  call void @llvm.assume(i1 %18)
  %19 = call i32 @errcode(i32 noundef 67371138) #6
  %20 = call i32 (ptr, ...) @errmsg(ptr noundef nonnull @.str) #6
  call void @errfinish(ptr noundef nonnull @.str.1, i32 noundef 443, ptr noundef nonnull @__func__.window_ntile) #6
  unreachable

21:                                               ; preds = %14
  store i32 1, ptr %5, align 8
  %22 = and i64 %11, 2147483647
  %23 = sdiv i64 %10, %22
  %24 = srem i64 %10, %22
  %25 = getelementptr inbounds nuw i8, ptr %5, i64 16
  store i64 %23, ptr %25, align 8
  %26 = icmp slt i64 %23, 1
  br i1 %26, label %.thread.sink.split, label %27

27:                                               ; preds = %21
  %28 = getelementptr inbounds nuw i8, ptr %5, i64 24
  store i64 %24, ptr %28, align 8
  %.not = icmp eq i64 %24, 0
  br i1 %.not, label %.thread, label %29

29:                                               ; preds = %27
  %30 = add nuw i64 %23, 1
  br label %.thread.sink.split

.thread.sink.split:                               ; preds = %21, %29
  %.sink = phi i64 [ %30, %29 ], [ 1, %21 ]
  store i64 %.sink, ptr %25, align 8
  br label %.thread

.thread:                                          ; preds = %.thread.sink.split, %27
  %31 = phi i64 [ %23, %27 ], [ %.sink, %.thread.sink.split ]
  call void @llvm.lifetime.end.p0(i64 1, ptr nonnull %2) #6
  br label %34

32:                                               ; preds = %9
  %33 = getelementptr inbounds nuw i8, ptr %0, i64 28
  store i8 1, ptr %33, align 4
  call void @llvm.lifetime.end.p0(i64 1, ptr nonnull %2) #6
  br label %53

34:                                               ; preds = %._crit_edge, %.thread
  %35 = phi i32 [ %6, %._crit_edge ], [ 1, %.thread ]
  %36 = phi i64 [ %.pre36, %._crit_edge ], [ %31, %.thread ]
  %37 = phi i64 [ %8, %._crit_edge ], [ 1, %.thread ]
  %38 = getelementptr inbounds nuw i8, ptr %5, i64 8
  store i64 %37, ptr %38, align 8
  %39 = getelementptr inbounds nuw i8, ptr %5, i64 16
  %40 = icmp slt i64 %36, %37
  br i1 %40, label %41, label %50

41:                                               ; preds = %34
  %42 = getelementptr inbounds nuw i8, ptr %5, i64 24
  %43 = load i64, ptr %42, align 8
  %44 = sext i32 %35 to i64
  %45 = icmp eq i64 %43, %44
  br i1 %45, label %46, label %48

46:                                               ; preds = %41
  store i64 0, ptr %42, align 8
  %47 = add i64 %36, -1
  store i64 %47, ptr %39, align 8
  br label %48

48:                                               ; preds = %46, %41
  %49 = add i32 %35, 1
  store i32 %49, ptr %5, align 8
  store i64 1, ptr %38, align 8
  br label %50

50:                                               ; preds = %48, %34
  %51 = phi i32 [ %49, %48 ], [ %35, %34 ]
  %52 = sext i32 %51 to i64
  br label %53

53:                                               ; preds = %32, %50
  %.1 = phi i64 [ %52, %50 ], [ 0, %32 ]
  ret i64 %.1
}